target datalayout = "e-m:e-p270:32:32-p271:32:32-p272:64:64-i64:64-i128:128-f80:128-n8:16:32:64-S128"
target triple = "x86_64-pc-linux-gnu"

%struct.Vmem = type { ptr, i64, i64 }
%struct.Expr_ = type { ptr, %union.SourceSpan, i16, %union.anon.29 }
%union.SourceSpan = type { i64 }
%union.anon.29 = type { %struct.ExprAnySwitch }
%struct.ExprAnySwitch = type { i8, %union.anon.31 }
%union.anon.31 = type { %struct.anon.32 }
%struct.anon.32 = type { ptr, %union.SourceSpan, ptr }
%struct.ExprCast = type { i8, i32, i32 }

@type_void = external global ptr, align 8
@expr_arena = external global %struct.Vmem, align 8

; Function Attrs: nounwind uwtable
define internal ptr @expr_calloc() #0 {
  %1 = call ptr @vmem_alloc(ptr noundef @expr_arena, i64 noundef 56)
  ret ptr %1
}

; Function Attrs: nounwind uwtable
define internal i32 @exprid(ptr noundef %0) #0 {
  %2 = alloca ptr, align 8
  store ptr %0, ptr %2, align 8
  %3 = load ptr, ptr %2, align 8
  %4 = load ptr, ptr @expr_arena, align 8
  %5 = ptrtoint ptr %3 to i64
  %6 = ptrtoint ptr %4 to i64
  %7 = sub i64 %5, %6
  %8 = sdiv exact i64 %7, 56
  %9 = trunc i64 %8 to i32
  ret i32 %9
}

; Function Attrs: nounwind uwtable
define internal ptr @expr_copy(ptr noundef %0) #0 {
  %2 = alloca ptr, align 8
  %3 = alloca ptr, align 8
  store ptr %0, ptr %2, align 8
  %4 = call ptr @expr_calloc()
  store ptr %4, ptr %3, align 8
  %5 = load ptr, ptr %3, align 8
  %6 = load ptr, ptr %2, align 8
  call void @llvm.memcpy.p0.p0.i64(ptr align 8 %5, ptr align 8 %6, i64 56, i1 false)
  %7 = load ptr, ptr %3, align 8
  ret ptr %7
}

; Function Attrs: nounwind uwtable
define internal zeroext i1 @insert_runtime_cast(ptr noundef %0, i32 noundef %1, ptr noundef %2) #0 {
  %4 = alloca ptr, align 8
  %5 = alloca i32, align 4
  %6 = alloca ptr, align 8
  %7 = alloca ptr, align 8
  store ptr %0, ptr %4, align 8
  store i32 %1, ptr %5, align 4
  store ptr %2, ptr %6, align 8
  %8 = load ptr, ptr %4, align 8
  %9 = call ptr @expr_copy(ptr noundef %8)
  store ptr %9, ptr %7, align 8
  %10 = load ptr, ptr %4, align 8
  %11 = getelementptr inbounds %struct.Expr_, ptr %10, i32 0, i32 2
  %12 = load i16, ptr %11, align 8
  %13 = and i16 %12, -256
  %14 = or i16 %13, 9
  store i16 %14, ptr %11, align 8
  %15 = load i32, ptr %5, align 4
  %16 = load ptr, ptr %4, align 8
  %17 = getelementptr inbounds %struct.Expr_, ptr %16, i32 0, i32 3
  %18 = trunc i32 %15 to i8
  store i8 %18, ptr %17, align 8
  %19 = load ptr, ptr %7, align 8
  %20 = call i32 @exprid(ptr noundef %19)
  %21 = load ptr, ptr %4, align 8
  %22 = getelementptr inbounds %struct.Expr_, ptr %21, i32 0, i32 3
  %23 = getelementptr inbounds %struct.ExprCast, ptr %22, i32 0, i32 1
  store i32 %20, ptr %23, align 4
  %24 = load ptr, ptr %4, align 8
  %25 = getelementptr inbounds %struct.Expr_, ptr %24, i32 0, i32 3
  %26 = getelementptr inbounds %struct.ExprCast, ptr %25, i32 0, i32 2
  store i32 0, ptr %26, align 8
  %27 = load ptr, ptr %6, align 8
  %28 = load ptr, ptr %4, align 8
  %29 = getelementptr inbounds %struct.Expr_, ptr %28, i32 0, i32 0
  store ptr %27, ptr %29, align 8
  ret i1 true
}

; Function Attrs: nounwind uwtable
define internal void @cast_all_to_void(ptr noundef %0, ptr noundef %1, ptr noundef %2) #0 {
  %4 = alloca ptr, align 8
  %5 = alloca ptr, align 8
  %6 = alloca ptr, align 8
  store ptr %0, ptr %4, align 8
  store ptr %1, ptr %5, align 8
  store ptr %2, ptr %6, align 8
  %7 = load ptr, ptr %5, align 8
  %8 = load ptr, ptr @type_void, align 8
  %9 = call zeroext i1 @insert_runtime_cast(ptr noundef %7, i32 noundef 37, ptr noundef %8)
  ret void
}