; Function Attrs: nounwind uwtable
define internal void @cast_all_to_void(ptr nocapture readnone %0, ptr nocapture noundef %1, ptr nocapture readnone %2) #0 {
  %4 = load ptr, ptr @type_void, align 8
  %5 = tail call noundef ptr @vmem_alloc(ptr noundef nonnull @expr_arena, i64 noundef 56) #10
  tail call void @llvm.memcpy.p0.p0.i64(ptr noundef nonnull align 8 dereferenceable(56) %5, ptr noundef nonnull align 8 dereferenceable(56) %1, i64 56, i1 false)
  %6 = getelementptr inbounds i8, ptr %1, i64 16
  %7 = load i16, ptr %6, align 8
  %8 = and i16 %7, -256
  %9 = or disjoint i16 %8, 9
  store i16 %9, ptr %6, align 8
  %10 = getelementptr inbounds i8, ptr %1, i64 24
  store i8 37, ptr %10, align 8
  %11 = load ptr, ptr @expr_arena, align 8
  %12 = ptrtoint ptr %5 to i64
  %13 = ptrtoint ptr %11 to i64
  %14 = sub i64 %12, %13
  %15 = sdiv exact i64 %14, 56
  %16 = trunc i64 %15 to i32
  %17 = getelementptr inbounds i8, ptr %1, i64 28
  store i32 %16, ptr %17, align 4
  %18 = getelementptr inbounds i8, ptr %1, i64 32
  store i32 0, ptr %18, align 8
  store ptr %4, ptr %1, align 8
  ret void
}